target datalayout = "e-m:e-p270:32:32-p271:32:32-p272:64:64-i64:64-i128:128-f80:128-n8:16:32:64-S128"
target triple = "x86_64-pc-linux-gnu"

%struct.PixelModel3 = type { i8, i8, i8, i8, i16, i32, [256 x i8], [256 x i16], [256 x i16], [256 x i16], [32 x i8] }

; Function Attrs: nounwind uwtable
define internal void @rescale_dec(ptr noundef %0) #1 {
  %2 = alloca ptr, align 8
  %3 = alloca [256 x i16], align 16
  %4 = alloca [512 x i16], align 16
  %5 = alloca i32, align 4
  %6 = alloca i32, align 4
  %7 = alloca i32, align 4
  %8 = alloca i32, align 4
  %9 = alloca i32, align 4
  store ptr %0, ptr %2, align 8, !tbaa !142
  call void @llvm.lifetime.start.p0(i64 512, ptr %3) #9
  call void @llvm.memset.p0.i64(ptr align 16 %3, i8 0, i64 512, i1 false)
  call void @llvm.lifetime.start.p0(i64 1024, ptr %4) #9
  call void @llvm.memset.p0.i64(ptr align 16 %4, i8 0, i64 1024, i1 false)
  call void @llvm.lifetime.start.p0(i64 4, ptr %5) #9
  call void @llvm.lifetime.start.p0(i64 4, ptr %6) #9
  call void @llvm.lifetime.start.p0(i64 4, ptr %7) #9
  call void @llvm.lifetime.start.p0(i64 4, ptr %8) #9
  call void @llvm.lifetime.start.p0(i64 4, ptr %9) #9
  %10 = load ptr, ptr %2, align 8, !tbaa !142
  %11 = getelementptr inbounds nuw %struct.PixelModel3, ptr %10, i32 0, i32 3
  %12 = load i8, ptr %11, align 1, !tbaa !172
  %13 = zext i8 %12 to i32
  %14 = icmp slt i32 0, %13
  br i1 %14, label %15, label %21

15:                                               ; preds = %1
  %16 = load ptr, ptr %2, align 8, !tbaa !142
  %17 = getelementptr inbounds nuw %struct.PixelModel3, ptr %16, i32 0, i32 3
  %18 = load i8, ptr %17, align 1, !tbaa !172
  %19 = zext i8 %18 to i32
  %20 = sub nsw i32 %19, 1
  br label %22

21:                                               ; preds = %1
  br label %22

22:                                               ; preds = %21, %15
  %23 = phi i32 [ %20, %15 ], [ 0, %21 ]
  %24 = shl i32 1, %23
  store i32 %24, ptr %9, align 4, !tbaa !57
  store i32 0, ptr %5, align 4, !tbaa !57
  br label %25

25:                                               ; preds = %34, %22
  %26 = load i32, ptr %5, align 4, !tbaa !57
  %27 = icmp slt i32 %26, 256
  br i1 %27, label %28, label %37

28:                                               ; preds = %25
  %29 = load i32, ptr %9, align 4, !tbaa !57
  %30 = trunc i32 %29 to i16
  %31 = load i32, ptr %5, align 4, !tbaa !57
  %32 = sext i32 %31 to i64
  %33 = getelementptr inbounds [256 x i16], ptr %3, i64 0, i64 %32
  store i16 %30, ptr %33, align 2, !tbaa !68
  br label %34

34:                                               ; preds = %28
  %35 = load i32, ptr %5, align 4, !tbaa !57
  %36 = add nsw i32 %35, 1
  store i32 %36, ptr %5, align 4, !tbaa !57
  br label %25, !llvm.loop !209

37:                                               ; preds = %25
  store i32 0, ptr %9, align 4, !tbaa !57
  %38 = load ptr, ptr %2, align 8, !tbaa !142
  %39 = getelementptr inbounds nuw %struct.PixelModel3, ptr %38, i32 0, i32 4
  %40 = load i16, ptr %39, align 4, !tbaa !158
  %41 = zext i16 %40 to i32
  store i32 %41, ptr %5, align 4, !tbaa !57
  br label %42

42:                                               ; preds = %61, %37
  %43 = load i32, ptr %9, align 4, !tbaa !57
  %44 = load i32, ptr %5, align 4, !tbaa !57
  %45 = icmp ult i32 %43, %44
  br i1 %45, label %46, label %64

46:                                               ; preds = %42
  %47 = load ptr, ptr %2, align 8, !tbaa !142
  %48 = getelementptr inbounds nuw %struct.PixelModel3, ptr %47, i32 0, i32 9
  %49 = load i32, ptr %9, align 4, !tbaa !57
  %50 = zext i32 %49 to i64
  %51 = getelementptr inbounds nuw [256 x i16], ptr %48, i64 0, i64 %50
  %52 = load i16, ptr %51, align 2, !tbaa !68
  %53 = load ptr, ptr %2, align 8, !tbaa !142
  %54 = getelementptr inbounds nuw %struct.PixelModel3, ptr %53, i32 0, i32 6
  %55 = load i32, ptr %9, align 4, !tbaa !57
  %56 = zext i32 %55 to i64
  %57 = getelementptr inbounds nuw [256 x i8], ptr %54, i64 0, i64 %56
  %58 = load i8, ptr %57, align 1, !tbaa !76
  %59 = zext i8 %58 to i64
  %60 = getelementptr inbounds nuw [256 x i16], ptr %3, i64 0, i64 %59
  store i16 %52, ptr %60, align 2, !tbaa !68
  br label %61

61:                                               ; preds = %46
  %62 = load i32, ptr %9, align 4, !tbaa !57
  %63 = add i32 %62, 1
  store i32 %63, ptr %9, align 4, !tbaa !57
  br label %42, !llvm.loop !210

64:                                               ; preds = %42
  store i32 0, ptr %9, align 4, !tbaa !57
  store i32 0, ptr %5, align 4, !tbaa !57
  br label %65

65:                                               ; preds = %91, %64
  %66 = load i32, ptr %5, align 4, !tbaa !57
  %67 = icmp slt i32 %66, 256
  br i1 %67, label %68, label %94

68:                                               ; preds = %65
  %69 = load i32, ptr %5, align 4, !tbaa !57
  %70 = sext i32 %69 to i64
  %71 = getelementptr inbounds [256 x i16], ptr %3, i64 0, i64 %70
  %72 = load i16, ptr %71, align 2, !tbaa !68
  %73 = load i32, ptr %5, align 4, !tbaa !57
  %74 = mul nsw i32 2, %73
  %75 = sext i32 %74 to i64
  %76 = getelementptr inbounds [512 x i16], ptr %4, i64 0, i64 %75
  store i16 %72, ptr %76, align 2, !tbaa !68
  %77 = load i32, ptr %9, align 4, !tbaa !57
  %78 = trunc i32 %77 to i16
  %79 = load i32, ptr %5, align 4, !tbaa !57
  %80 = mul nsw i32 2, %79
  %81 = add nsw i32 %80, 1
  %82 = sext i32 %81 to i64
  %83 = getelementptr inbounds [512 x i16], ptr %4, i64 0, i64 %82
  store i16 %78, ptr %83, align 2, !tbaa !68
  %84 = load i32, ptr %5, align 4, !tbaa !57
  %85 = sext i32 %84 to i64
  %86 = getelementptr inbounds [256 x i16], ptr %3, i64 0, i64 %85
  %87 = load i16, ptr %86, align 2, !tbaa !68
  %88 = zext i16 %87 to i32
  %89 = load i32, ptr %9, align 4, !tbaa !57
  %90 = add i32 %89, %88
  store i32 %90, ptr %9, align 4, !tbaa !57
  br label %91

91:                                               ; preds = %68
  %92 = load i32, ptr %5, align 4, !tbaa !57
  %93 = add nsw i32 %92, 1
  store i32 %93, ptr %5, align 4, !tbaa !57
  br label %65, !llvm.loop !211

94:                                               ; preds = %65
  %95 = load ptr, ptr %2, align 8, !tbaa !142
  %96 = getelementptr inbounds nuw %struct.PixelModel3, ptr %95, i32 0, i32 3
  %97 = load i8, ptr %96, align 1, !tbaa !172
  %98 = zext i8 %97 to i32
  %99 = icmp sgt i32 %98, 0
  br i1 %99, label %100, label %105

100:                                              ; preds = %94
  %101 = load ptr, ptr %2, align 8, !tbaa !142
  %102 = getelementptr inbounds nuw %struct.PixelModel3, ptr %101, i32 0, i32 3
  %103 = load i8, ptr %102, align 1, !tbaa !172
  %104 = add i8 %103, -1
  store i8 %104, ptr %102, align 1, !tbaa !172
  br label %105

105:                                              ; preds = %100, %94
  %106 = load ptr, ptr %2, align 8, !tbaa !142
  %107 = getelementptr inbounds nuw %struct.PixelModel3, ptr %106, i32 0, i32 4
  %108 = load i16, ptr %107, align 4, !tbaa !158
  %109 = zext i16 %108 to i32
  %110 = sub nsw i32 256, %109
  %111 = load ptr, ptr %2, align 8, !tbaa !142
  %112 = getelementptr inbounds nuw %struct.PixelModel3, ptr %111, i32 0, i32 3
  %113 = load i8, ptr %112, align 1, !tbaa !172
  %114 = zext i8 %113 to i32
  %115 = icmp slt i32 0, %114
  br i1 %115, label %116, label %122

116:                                              ; preds = %105
  %117 = load ptr, ptr %2, align 8, !tbaa !142
  %118 = getelementptr inbounds nuw %struct.PixelModel3, ptr %117, i32 0, i32 3
  %119 = load i8, ptr %118, align 1, !tbaa !172
  %120 = zext i8 %119 to i32
  %121 = sub nsw i32 %120, 1
  br label %123

122:                                              ; preds = %105
  br label %123

123:                                              ; preds = %122, %116
  %124 = phi i32 [ %121, %116 ], [ 0, %122 ]
  %125 = shl i32 %110, %124
  store i32 %125, ptr %9, align 4, !tbaa !57
  store i32 0, ptr %5, align 4, !tbaa !57
  %126 = load ptr, ptr %2, align 8, !tbaa !142
  %127 = getelementptr inbounds nuw %struct.PixelModel3, ptr %126, i32 0, i32 4
  %128 = load i16, ptr %127, align 4, !tbaa !158
  %129 = zext i16 %128 to i32
  store i32 %129, ptr %6, align 4, !tbaa !57
  br label %130

130:                                              ; preds = %195, %123
  %131 = load i32, ptr %5, align 4, !tbaa !57
  %132 = load i32, ptr %6, align 4, !tbaa !57
  %133 = icmp slt i32 %131, %132
  br i1 %133, label %134, label %198

134:                                              ; preds = %130
  %135 = load ptr, ptr %2, align 8, !tbaa !142
  %136 = getelementptr inbounds nuw %struct.PixelModel3, ptr %135, i32 0, i32 9
  %137 = load i32, ptr %5, align 4, !tbaa !57
  %138 = sext i32 %137 to i64
  %139 = getelementptr inbounds [256 x i16], ptr %136, i64 0, i64 %138
  %140 = load i16, ptr %139, align 2, !tbaa !68
  %141 = zext i16 %140 to i32
  %142 = ashr i32 %141, 1
  %143 = load ptr, ptr %2, align 8, !tbaa !142
  %144 = getelementptr inbounds nuw %struct.PixelModel3, ptr %143, i32 0, i32 9
  %145 = load i32, ptr %5, align 4, !tbaa !57
  %146 = sext i32 %145 to i64
  %147 = getelementptr inbounds [256 x i16], ptr %144, i64 0, i64 %146
  %148 = load i16, ptr %147, align 2, !tbaa !68
  %149 = zext i16 %148 to i32
  %150 = sub nsw i32 %149, %142
  %151 = trunc i32 %150 to i16
  store i16 %151, ptr %147, align 2, !tbaa !68
  %152 = load i32, ptr %9, align 4, !tbaa !57
  %153 = load ptr, ptr %2, align 8, !tbaa !142
  %154 = getelementptr inbounds nuw %struct.PixelModel3, ptr %153, i32 0, i32 9
  %155 = load i32, ptr %5, align 4, !tbaa !57
  %156 = sext i32 %155 to i64
  %157 = getelementptr inbounds [256 x i16], ptr %154, i64 0, i64 %156
  %158 = load i16, ptr %157, align 2, !tbaa !68
  %159 = zext i16 %158 to i32
  %160 = add i32 %152, %159
  store i32 %160, ptr %9, align 4, !tbaa !57
  %161 = load ptr, ptr %2, align 8, !tbaa !142
  %162 = getelementptr inbounds nuw %struct.PixelModel3, ptr %161, i32 0, i32 6
  %163 = load i32, ptr %5, align 4, !tbaa !57
  %164 = sext i32 %163 to i64
  %165 = getelementptr inbounds [256 x i8], ptr %162, i64 0, i64 %164
  %166 = load i8, ptr %165, align 1, !tbaa !76
  %167 = zext i8 %166 to i32
  store i32 %167, ptr %7, align 4, !tbaa !57
  %168 = load i32, ptr %7, align 4, !tbaa !57
  %169 = mul nsw i32 2, %168
  %170 = add nsw i32 %169, 1
  %171 = sext i32 %170 to i64
  %172 = getelementptr inbounds [512 x i16], ptr %4, i64 0, i64 %171
  %173 = load i16, ptr %172, align 2, !tbaa !68
  %174 = zext i16 %173 to i32
  store i32 %174, ptr %8, align 4, !tbaa !57
  %175 = load i32, ptr %7, align 4, !tbaa !57
  %176 = mul nsw i32 2, %175
  %177 = sext i32 %176 to i64
  %178 = getelementptr inbounds [512 x i16], ptr %4, i64 0, i64 %177
  %179 = load i16, ptr %178, align 2, !tbaa !68
  %180 = load ptr, ptr %2, align 8, !tbaa !142
  %181 = getelementptr inbounds nuw %struct.PixelModel3, ptr %180, i32 0, i32 7
  %182 = load i32, ptr %5, align 4, !tbaa !57
  %183 = mul nsw i32 2, %182
  %184 = sext i32 %183 to i64
  %185 = getelementptr inbounds [256 x i16], ptr %181, i64 0, i64 %184
  store i16 %179, ptr %185, align 2, !tbaa !68
  %186 = load i32, ptr %8, align 4, !tbaa !57
  %187 = trunc i32 %186 to i16
  %188 = load ptr, ptr %2, align 8, !tbaa !142
  %189 = getelementptr inbounds nuw %struct.PixelModel3, ptr %188, i32 0, i32 7
  %190 = load i32, ptr %5, align 4, !tbaa !57
  %191 = mul nsw i32 2, %190
  %192 = add nsw i32 %191, 1
  %193 = sext i32 %192 to i64
  %194 = getelementptr inbounds [256 x i16], ptr %189, i64 0, i64 %193
  store i16 %187, ptr %194, align 2, !tbaa !68
  br label %195

195:                                              ; preds = %134
  %196 = load i32, ptr %5, align 4, !tbaa !57
  %197 = add nsw i32 %196, 1
  store i32 %197, ptr %5, align 4, !tbaa !57
  br label %130, !llvm.loop !212

198:                                              ; preds = %130
  %199 = load i32, ptr %9, align 4, !tbaa !57
  %200 = trunc i32 %199 to i16
  %201 = load ptr, ptr %2, align 8, !tbaa !142
  %202 = getelementptr inbounds nuw %struct.PixelModel3, ptr %201, i32 0, i32 9
  %203 = load ptr, ptr %2, align 8, !tbaa !142
  %204 = getelementptr inbounds nuw %struct.PixelModel3, ptr %203, i32 0, i32 1
  %205 = load i8, ptr %204, align 1, !tbaa !168
  %206 = zext i8 %205 to i64
  %207 = getelementptr inbounds nuw [256 x i16], ptr %202, i64 0, i64 %206
  store i16 %200, ptr %207, align 2, !tbaa !68
  call void @llvm.lifetime.end.p0(i64 4, ptr %9) #9
  call void @llvm.lifetime.end.p0(i64 4, ptr %8) #9
  call void @llvm.lifetime.end.p0(i64 4, ptr %7) #9
  call void @llvm.lifetime.end.p0(i64 4, ptr %6) #9
  call void @llvm.lifetime.end.p0(i64 4, ptr %5) #9
  call void @llvm.lifetime.end.p0(i64 1024, ptr %4) #9
  call void @llvm.lifetime.end.p0(i64 512, ptr %3) #9
  ret void
}