; Function Attrs: nofree norecurse nosync nounwind memory(argmem: readwrite) uwtable
define internal fastcc void @rescale_dec(ptr noundef captures(none) %0) unnamed_addr #7 {
  %2 = alloca [256 x i16], align 16
  %3 = alloca [512 x i16], align 16
  call void @llvm.lifetime.start.p0(i64 512, ptr nonnull %2) #12
  call void @llvm.memset.p0.i64(ptr noundef nonnull align 16 dereferenceable(512) %2, i8 0, i64 512, i1 false)
  call void @llvm.lifetime.start.p0(i64 1024, ptr nonnull %3) #12
  call void @llvm.memset.p0.i64(ptr noundef nonnull align 16 dereferenceable(1024) %3, i8 0, i64 1024, i1 false)
  %4 = getelementptr inbounds nuw i8, ptr %0, i64 3
  %5 = load i8, ptr %4, align 1, !tbaa !160
  %.fr80 = freeze i8 %5
  %.not = icmp eq i8 %.fr80, 0
  %6 = zext i8 %.fr80 to i32
  %7 = add nsw i32 %6, -1
  %8 = shl nuw i32 1, %7
  %9 = trunc i32 %8 to i16
  %10 = select i1 %.not, i16 1, i16 %9
  br label %11

11:                                               ; preds = %1, %11
  %indvars.iv = phi i64 [ 0, %1 ], [ %indvars.iv.next, %11 ]
  %12 = getelementptr inbounds nuw [256 x i16], ptr %2, i64 0, i64 %indvars.iv
  store i16 %10, ptr %12, align 2, !tbaa !70
  %indvars.iv.next = add nuw nsw i64 %indvars.iv, 1
  %exitcond.not = icmp eq i64 %indvars.iv.next, 256
  br i1 %exitcond.not, label %13, label %11, !llvm.loop !182

13:                                               ; preds = %11
  %14 = getelementptr inbounds nuw i8, ptr %0, i64 4
  %15 = load i16, ptr %14, align 4, !tbaa !139
  %16 = zext i16 %15 to i32
  %.not63 = icmp eq i16 %15, 0
  br i1 %.not63, label %.preheader.preheader, label %.lr.ph

.lr.ph:                                           ; preds = %13
  %17 = getelementptr inbounds nuw i8, ptr %0, i64 1292
  %18 = getelementptr inbounds nuw i8, ptr %0, i64 12
  %wide.trip.count = zext i16 %15 to i64
  br label %19

19:                                               ; preds = %.lr.ph, %19
  %indvars.iv66 = phi i64 [ 0, %.lr.ph ], [ %indvars.iv.next67, %19 ]
  %20 = getelementptr inbounds nuw [256 x i16], ptr %17, i64 0, i64 %indvars.iv66
  %21 = load i16, ptr %20, align 2, !tbaa !70
  %22 = getelementptr inbounds nuw [256 x i8], ptr %18, i64 0, i64 %indvars.iv66
  %23 = load i8, ptr %22, align 1, !tbaa !53
  %24 = zext i8 %23 to i64
  %25 = getelementptr inbounds nuw [256 x i16], ptr %2, i64 0, i64 %24
  store i16 %21, ptr %25, align 2, !tbaa !70
  %indvars.iv.next67 = add nuw nsw i64 %indvars.iv66, 1
  %exitcond69.not = icmp eq i64 %indvars.iv.next67, %wide.trip.count
  br i1 %exitcond69.not, label %.preheader.preheader, label %19, !llvm.loop !183

.preheader.preheader:                             ; preds = %19, %13
  br label %.preheader

.preheader:                                       ; preds = %.preheader.preheader, %.preheader
  %indvars.iv70 = phi i64 [ %indvars.iv.next71, %.preheader ], [ 0, %.preheader.preheader ]
  %.159 = phi i16 [ %32, %.preheader ], [ 0, %.preheader.preheader ]
  %26 = getelementptr inbounds nuw [256 x i16], ptr %2, i64 0, i64 %indvars.iv70
  %27 = load i16, ptr %26, align 2, !tbaa !70
  %28 = shl nuw nsw i64 %indvars.iv70, 1
  %29 = getelementptr inbounds nuw [512 x i16], ptr %3, i64 0, i64 %28
  store i16 %27, ptr %29, align 4, !tbaa !70
  %30 = or disjoint i64 %28, 1
  %31 = getelementptr inbounds nuw [512 x i16], ptr %3, i64 0, i64 %30
  store i16 %.159, ptr %31, align 2, !tbaa !70
  %32 = add i16 %27, %.159
  %indvars.iv.next71 = add nuw nsw i64 %indvars.iv70, 1
  %exitcond72.not = icmp eq i64 %indvars.iv.next71, 256
  br i1 %exitcond72.not, label %33, label %.preheader, !llvm.loop !184

33:                                               ; preds = %.preheader
  br i1 %.not, label %.thread, label %34

34:                                               ; preds = %33
  %35 = add i8 %.fr80, -1
  store i8 %35, ptr %4, align 1, !tbaa !160
  %.not55 = icmp eq i8 %35, 0
  %36 = zext i8 %35 to i32
  %37 = add nsw i32 %36, -1
  %spec.select = select i1 %.not55, i32 0, i32 %37
  br label %.thread

.thread:                                          ; preds = %33, %34
  %38 = phi i32 [ %spec.select, %34 ], [ 0, %33 ]
  %39 = sub nsw i32 256, %16
  %40 = shl i32 %39, %38
  br i1 %.not63, label %._crit_edge, label %.lr.ph62

.lr.ph62:                                         ; preds = %.thread
  %41 = getelementptr inbounds nuw i8, ptr %0, i64 1292
  %42 = getelementptr inbounds nuw i8, ptr %0, i64 12
  %43 = getelementptr inbounds nuw i8, ptr %0, i64 268
  %wide.trip.count76 = zext i16 %15 to i64
  br label %44

44:                                               ; preds = %.lr.ph62, %44
  %indvars.iv73 = phi i64 [ 0, %.lr.ph62 ], [ %indvars.iv.next74, %44 ]
  %.261 = phi i32 [ %40, %.lr.ph62 ], [ %50, %44 ]
  %45 = getelementptr inbounds nuw [256 x i16], ptr %41, i64 0, i64 %indvars.iv73
  %46 = load i16, ptr %45, align 2, !tbaa !70
  %47 = lshr i16 %46, 1
  %48 = sub i16 %46, %47
  store i16 %48, ptr %45, align 2, !tbaa !70
  %49 = zext i16 %48 to i32
  %50 = add i32 %.261, %49
  %51 = getelementptr inbounds nuw [256 x i8], ptr %42, i64 0, i64 %indvars.iv73
  %52 = load i8, ptr %51, align 1, !tbaa !53
  %53 = zext i8 %52 to i32
  %54 = shl nuw nsw i32 %53, 1
  %55 = or disjoint i32 %54, 1
  %56 = zext nneg i32 %55 to i64
  %57 = getelementptr inbounds nuw [512 x i16], ptr %3, i64 0, i64 %56
  %58 = load i16, ptr %57, align 2, !tbaa !70
  %59 = zext nneg i32 %54 to i64
  %60 = getelementptr inbounds nuw [512 x i16], ptr %3, i64 0, i64 %59
  %61 = load i16, ptr %60, align 4, !tbaa !70
  %62 = shl nuw nsw i64 %indvars.iv73, 1
  %63 = getelementptr inbounds nuw [256 x i16], ptr %43, i64 0, i64 %62
  store i16 %61, ptr %63, align 2, !tbaa !70
  %64 = or disjoint i64 %62, 1
  %65 = getelementptr inbounds nuw [256 x i16], ptr %43, i64 0, i64 %64
  store i16 %58, ptr %65, align 2, !tbaa !70
  %indvars.iv.next74 = add nuw nsw i64 %indvars.iv73, 1
  %exitcond77.not = icmp eq i64 %indvars.iv.next74, %wide.trip.count76
  br i1 %exitcond77.not, label %._crit_edge, label %44, !llvm.loop !185

._crit_edge:                                      ; preds = %44, %.thread
  %.2.lcssa = phi i32 [ %40, %.thread ], [ %50, %44 ]
  %66 = trunc i32 %.2.lcssa to i16
  %67 = getelementptr inbounds nuw i8, ptr %0, i64 1292
  %68 = getelementptr inbounds nuw i8, ptr %0, i64 1
  %69 = load i8, ptr %68, align 1, !tbaa !152
  %70 = zext i8 %69 to i64
  %71 = getelementptr inbounds nuw [256 x i16], ptr %67, i64 0, i64 %70
  store i16 %66, ptr %71, align 2, !tbaa !70
  call void @llvm.lifetime.end.p0(i64 1024, ptr nonnull %3) #12
  call void @llvm.lifetime.end.p0(i64 512, ptr nonnull %2) #12
  ret void
}